; Function Attrs: mustprogress uwtable
define noundef zeroext i1 @_ZNK3net19QuicPacketGenerator35CanSendWithNextPendingFrameAdditionEv(ptr noundef nonnull readonly align 8 captures(none) dereferenceable(472) %0) local_unnamed_addr #0 align 2 {
  %2 = getelementptr inbounds nuw i8, ptr %0, i64 345
  %3 = load i8, ptr %2, align 1, !tbaa !70, !range !67, !noundef !68
  %4 = trunc nuw i8 %3 to i1
  %5 = getelementptr inbounds nuw i8, ptr %0, i64 346
  %6 = load i8, ptr %5, align 2, !range !67
  %7 = xor i8 %6, 1
  %not. = select i1 %4, i8 0, i8 %7
  %8 = load ptr, ptr %0, align 8, !tbaa !3
  %9 = load ptr, ptr %8, align 8, !tbaa !73
  %10 = getelementptr inbounds nuw i8, ptr %9, i64 32
  %11 = load ptr, ptr %10, align 8
  %12 = tail call noundef zeroext i1 %11(ptr noundef nonnull align 8 dereferenceable(8) %8, i8 noundef signext %not., i8 noundef signext 0)
  ret i1 %12
}